; ModuleID = '43/1650.c'
source_filename = "43/1650.c"
target datalayout = "e-m:e-p270:32:32-p271:32:32-p272:64:64-i64:64-f80:128-n8:16:32:64-S128"
target triple = "x86_64-pc-linux-gnu"

@.str = private unnamed_addr constant [3 x i8] c"%d\00", align 1
@.str.1 = private unnamed_addr constant [7 x i8] c"%d %d\0A\00", align 1

; Function Attrs: noinline nounwind uwtable
define dso_local i32 @main() #0 {
  %1 = alloca i32, align 4
  %2 = alloca i32, align 4
  %3 = alloca i32, align 4
  %4 = alloca i32, align 4
  %5 = alloca [10000 x i32], align 16
  store i32 0, i32* %1, align 4
  %6 = call i32 (i8*, ...) @__isoc99_scanf(i8* getelementptr inbounds ([3 x i8], [3 x i8]* @.str, i64 0, i64 0), i32* %2)
  store i32 1, i32* %4, align 4
  br label %7

7:                                                ; preds = %34, %0
  %8 = load i32, i32* %4, align 4
  %9 = icmp sle i32 %8, 9999
  br i1 %9, label %10, label %37

10:                                               ; preds = %7
  store i32 2, i32* %3, align 4
  br label %11

11:                                               ; preds = %31, %10
  %12 = load i32, i32* %3, align 4
  %13 = load i32, i32* %4, align 4
  %14 = sdiv i32 %13, 2
  %15 = add nsw i32 %14, 1
  %16 = icmp sle i32 %12, %15
  br i1 %16, label %17, label %34

17:                                               ; preds = %11
  %18 = load i32, i32* %4, align 4
  %19 = load i32, i32* %3, align 4
  %20 = srem i32 %18, %19
  %21 = icmp eq i32 %20, 0
  br i1 %21, label %22, label %26

22:                                               ; preds = %17
  %23 = load i32, i32* %4, align 4
  %24 = sext i32 %23 to i64
  %25 = getelementptr inbounds [10000 x i32], [10000 x i32]* %5, i64 0, i64 %24
  store i32 0, i32* %25, align 4
  br label %34

26:                                               ; preds = %17
  %27 = load i32, i32* %4, align 4
  %28 = load i32, i32* %4, align 4
  %29 = sext i32 %28 to i64
  %30 = getelementptr inbounds [10000 x i32], [10000 x i32]* %5, i64 0, i64 %29
  store i32 %27, i32* %30, align 4
  br label %31

31:                                               ; preds = %26
  %32 = load i32, i32* %3, align 4
  %33 = add nsw i32 %32, 1
  store i32 %33, i32* %3, align 4
  br label %11

34:                                               ; preds = %22, %11
  %35 = load i32, i32* %4, align 4
  %36 = add nsw i32 %35, 1
  store i32 %36, i32* %4, align 4
  br label %7

37:                                               ; preds = %7
  store i32 1, i32* %4, align 4
  br label %38

38:                                               ; preds = %71, %37
  %39 = load i32, i32* %4, align 4
  %40 = icmp sle i32 %39, 4999
  br i1 %40, label %41, label %74

41:                                               ; preds = %38
  %42 = load i32, i32* %4, align 4
  store i32 %42, i32* %3, align 4
  br label %43

43:                                               ; preds = %68, %41
  %44 = load i32, i32* %3, align 4
  %45 = icmp sle i32 %44, 9999
  br i1 %45, label %46, label %71

46:                                               ; preds = %43
  %47 = load i32, i32* %2, align 4
  %48 = load i32, i32* %4, align 4
  %49 = sext i32 %48 to i64
  %50 = getelementptr inbounds [10000 x i32], [10000 x i32]* %5, i64 0, i64 %49
  %51 = load i32, i32* %50, align 4
  %52 = load i32, i32* %3, align 4
  %53 = sext i32 %52 to i64
  %54 = getelementptr inbounds [10000 x i32], [10000 x i32]* %5, i64 0, i64 %53
  %55 = load i32, i32* %54, align 4
  %56 = add nsw i32 %51, %55
  %57 = icmp eq i32 %47, %56
  br i1 %57, label %58, label %68

58:                                               ; preds = %46
  %59 = load i32, i32* %4, align 4
  %60 = sext i32 %59 to i64
  %61 = getelementptr inbounds [10000 x i32], [10000 x i32]* %5, i64 0, i64 %60
  %62 = load i32, i32* %61, align 4
  %63 = load i32, i32* %3, align 4
  %64 = sext i32 %63 to i64
  %65 = getelementptr inbounds [10000 x i32], [10000 x i32]* %5, i64 0, i64 %64
  %66 = load i32, i32* %65, align 4
  %67 = call i32 (i8*, ...) @printf(i8* getelementptr inbounds ([7 x i8], [7 x i8]* @.str.1, i64 0, i64 0), i32 %62, i32 %66)
  br label %68

68:                                               ; preds = %58, %46
  %69 = load i32, i32* %3, align 4
  %70 = add nsw i32 %69, 1
  store i32 %70, i32* %3, align 4
  br label %43

71:                                               ; preds = %43
  %72 = load i32, i32* %4, align 4
  %73 = add nsw i32 %72, 1
  store i32 %73, i32* %4, align 4
  br label %38

74:                                               ; preds = %38
  %75 = load i32, i32* %1, align 4
  ret i32 %75
}

declare dso_local i32 @__isoc99_scanf(i8*, ...) #1

declare dso_local i32 @printf(i8*, ...) #1


!llvm.module.flags = !{!0}
!llvm.ident = !{!1}

!0 = !{i32 1, !"wchar_size", i32 4}
!1 = !{!"clang version 10.0.0-4ubuntu1 "}
